
GPS.elf:     file format elf32-avr

Sections:
Idx Name          Size      VMA       LMA       File off  Algn
  0 .text         00000482  00000000  00000000  00000094  2**1
                  CONTENTS, ALLOC, LOAD, READONLY, CODE
  1 .data         000002c0  00800060  00000482  00000516  2**0
                  CONTENTS, ALLOC, LOAD, DATA
  2 .bss          00000005  00800320  00800320  000007d6  2**0
                  ALLOC
  3 .comment      00000030  00000000  00000000  000007d6  2**0
                  CONTENTS, READONLY
  4 .debug_aranges 00000090  00000000  00000000  00000806  2**0
                  CONTENTS, READONLY, DEBUGGING
  5 .debug_info   00000fee  00000000  00000000  00000896  2**0
                  CONTENTS, READONLY, DEBUGGING
  6 .debug_abbrev 000002dd  00000000  00000000  00001884  2**0
                  CONTENTS, READONLY, DEBUGGING
  7 .debug_line   00000431  00000000  00000000  00001b61  2**0
                  CONTENTS, READONLY, DEBUGGING
  8 .debug_frame  00000180  00000000  00000000  00001f94  2**2
                  CONTENTS, READONLY, DEBUGGING
  9 .debug_str    00000260  00000000  00000000  00002114  2**0
                  CONTENTS, READONLY, DEBUGGING
 10 .debug_loc    0000052d  00000000  00000000  00002374  2**0
                  CONTENTS, READONLY, DEBUGGING
 11 .debug_ranges 00000080  00000000  00000000  000028a1  2**0
                  CONTENTS, READONLY, DEBUGGING

Disassembly of section .text:

00000000 <__vectors>:
   0:	0c 94 2a 00 	jmp	0x54	; 0x54 <__ctors_end>
   4:	0c 94 47 00 	jmp	0x8e	; 0x8e <__bad_interrupt>
   8:	0c 94 47 00 	jmp	0x8e	; 0x8e <__bad_interrupt>
   c:	0c 94 47 00 	jmp	0x8e	; 0x8e <__bad_interrupt>
  10:	0c 94 47 00 	jmp	0x8e	; 0x8e <__bad_interrupt>
  14:	0c 94 47 00 	jmp	0x8e	; 0x8e <__bad_interrupt>
  18:	0c 94 47 00 	jmp	0x8e	; 0x8e <__bad_interrupt>
  1c:	0c 94 47 00 	jmp	0x8e	; 0x8e <__bad_interrupt>
  20:	0c 94 47 00 	jmp	0x8e	; 0x8e <__bad_interrupt>
  24:	0c 94 47 00 	jmp	0x8e	; 0x8e <__bad_interrupt>
  28:	0c 94 47 00 	jmp	0x8e	; 0x8e <__bad_interrupt>
  2c:	0c 94 47 00 	jmp	0x8e	; 0x8e <__bad_interrupt>
  30:	0c 94 47 00 	jmp	0x8e	; 0x8e <__bad_interrupt>
  34:	0c 94 47 00 	jmp	0x8e	; 0x8e <__bad_interrupt>
  38:	0c 94 47 00 	jmp	0x8e	; 0x8e <__bad_interrupt>
  3c:	0c 94 47 00 	jmp	0x8e	; 0x8e <__bad_interrupt>
  40:	0c 94 47 00 	jmp	0x8e	; 0x8e <__bad_interrupt>
  44:	0c 94 47 00 	jmp	0x8e	; 0x8e <__bad_interrupt>
  48:	0c 94 47 00 	jmp	0x8e	; 0x8e <__bad_interrupt>
  4c:	0c 94 47 00 	jmp	0x8e	; 0x8e <__bad_interrupt>
  50:	0c 94 47 00 	jmp	0x8e	; 0x8e <__bad_interrupt>

00000054 <__ctors_end>:
  54:	11 24       	eor	r1, r1
  56:	1f be       	out	0x3f, r1	; 63
  58:	cf e5       	ldi	r28, 0x5F	; 95
  5a:	d4 e0       	ldi	r29, 0x04	; 4
  5c:	de bf       	out	0x3e, r29	; 62
  5e:	cd bf       	out	0x3d, r28	; 61

00000060 <__do_copy_data>:
  60:	13 e0       	ldi	r17, 0x03	; 3
  62:	a0 e6       	ldi	r26, 0x60	; 96
  64:	b0 e0       	ldi	r27, 0x00	; 0
  66:	e2 e8       	ldi	r30, 0x82	; 130
  68:	f4 e0       	ldi	r31, 0x04	; 4
  6a:	02 c0       	rjmp	.+4      	; 0x70 <__do_copy_data+0x10>
  6c:	05 90       	lpm	r0, Z+
  6e:	0d 92       	st	X+, r0
  70:	a0 32       	cpi	r26, 0x20	; 32
  72:	b1 07       	cpc	r27, r17
  74:	d9 f7       	brne	.-10     	; 0x6c <__do_copy_data+0xc>

00000076 <__do_clear_bss>:
  76:	23 e0       	ldi	r18, 0x03	; 3
  78:	a0 e2       	ldi	r26, 0x20	; 32
  7a:	b3 e0       	ldi	r27, 0x03	; 3
  7c:	01 c0       	rjmp	.+2      	; 0x80 <.do_clear_bss_start>

0000007e <.do_clear_bss_loop>:
  7e:	1d 92       	st	X+, r1

00000080 <.do_clear_bss_start>:
  80:	a5 32       	cpi	r26, 0x25	; 37
  82:	b2 07       	cpc	r27, r18
  84:	e1 f7       	brne	.-8      	; 0x7e <.do_clear_bss_loop>
  86:	0e 94 ee 01 	call	0x3dc	; 0x3dc <main>
  8a:	0c 94 3f 02 	jmp	0x47e	; 0x47e <_exit>

0000008e <__bad_interrupt>:
  8e:	0c 94 00 00 	jmp	0	; 0x0 <__vectors>

00000092 <i2cstart>:
uint8_t twi_status_register;
void ssd1306_command(uint8_t data);

uint8_t i2cstart(void)
{
	TWCR = (1<<TWINT) | (1<<TWSTA) | (1<<TWEN);
  92:	84 ea       	ldi	r24, 0xA4	; 164
  94:	86 bf       	out	0x36, r24	; 54
	while(!(TWCR & (1<<TWINT)));
  96:	06 b6       	in	r0, 0x36	; 54
  98:	07 fe       	sbrs	r0, 7
  9a:	fd cf       	rjmp	.-6      	; 0x96 <i2cstart+0x4>

	twi_status_register = TW_STATUS & 0xF8;
  9c:	81 b1       	in	r24, 0x01	; 1
  9e:	88 7f       	andi	r24, 0xF8	; 248
  a0:	80 93 24 03 	sts	0x0324, r24
	if ((twi_status_register != TW_START) && (twi_status_register != TW_REP_START))
  a4:	88 30       	cpi	r24, 0x08	; 8
  a6:	11 f0       	breq	.+4      	; 0xac <i2cstart+0x1a>
  a8:	80 31       	cpi	r24, 0x10	; 16
  aa:	91 f4       	brne	.+36     	; 0xd0 <i2cstart+0x3e>
	return 1;

	TWDR = I2CADDR;
  ac:	88 e7       	ldi	r24, 0x78	; 120
  ae:	83 b9       	out	0x03, r24	; 3
	TWCR = (1<<TWINT) | (1<<TWEN);
  b0:	84 e8       	ldi	r24, 0x84	; 132
  b2:	86 bf       	out	0x36, r24	; 54

	while(!(TWCR & (1<<TWINT)));
  b4:	06 b6       	in	r0, 0x36	; 54
  b6:	07 fe       	sbrs	r0, 7
  b8:	fd cf       	rjmp	.-6      	; 0xb4 <i2cstart+0x22>

	twi_status_register = TW_STATUS & 0xF8;
  ba:	91 b1       	in	r25, 0x01	; 1
  bc:	98 7f       	andi	r25, 0xF8	; 248
  be:	90 93 24 03 	sts	0x0324, r25
	if ((twi_status_register != TW_MT_SLA_ACK) && (twi_status_register != TW_MR_SLA_ACK))
  c2:	98 31       	cpi	r25, 0x18	; 24
  c4:	39 f0       	breq	.+14     	; 0xd4 <i2cstart+0x42>
  c6:	81 e0       	ldi	r24, 0x01	; 1
  c8:	90 34       	cpi	r25, 0x40	; 64
  ca:	29 f4       	brne	.+10     	; 0xd6 <i2cstart+0x44>
  cc:	80 e0       	ldi	r24, 0x00	; 0
  ce:	08 95       	ret
	TWCR = (1<<TWINT) | (1<<TWSTA) | (1<<TWEN);
	while(!(TWCR & (1<<TWINT)));

	twi_status_register = TW_STATUS & 0xF8;
	if ((twi_status_register != TW_START) && (twi_status_register != TW_REP_START))
	return 1;
  d0:	81 e0       	ldi	r24, 0x01	; 1
  d2:	08 95       	ret
	if ((twi_status_register != TW_MT_SLA_ACK) && (twi_status_register != TW_MR_SLA_ACK))
	{
		return 1;
	}

	return 0;
  d4:	80 e0       	ldi	r24, 0x00	; 0
}
  d6:	08 95       	ret

000000d8 <i2cwrite>:

uint8_t i2cwrite(uint8_t data)
{
	TWDR = data;
  d8:	83 b9       	out	0x03, r24	; 3
	TWCR = (1<<TWINT) | (1<<TWEN);
  da:	84 e8       	ldi	r24, 0x84	; 132
  dc:	86 bf       	out	0x36, r24	; 54

	while(!(TWCR & (1<<TWINT)));
  de:	06 b6       	in	r0, 0x36	; 54
  e0:	07 fe       	sbrs	r0, 7
  e2:	fd cf       	rjmp	.-6      	; 0xde <i2cwrite+0x6>

	twi_status_register = TW_STATUS & 0xF8;
  e4:	91 b1       	in	r25, 0x01	; 1
  e6:	98 7f       	andi	r25, 0xF8	; 248
  e8:	90 93 24 03 	sts	0x0324, r25
	if (twi_status_register != TW_MT_DATA_ACK)
  ec:	81 e0       	ldi	r24, 0x01	; 1
  ee:	98 32       	cpi	r25, 0x28	; 40
  f0:	09 f4       	brne	.+2      	; 0xf4 <i2cwrite+0x1c>
  f2:	80 e0       	ldi	r24, 0x00	; 0
	return 1;
	else
	return 0;
}
  f4:	08 95       	ret

000000f6 <i2cstop>:

void i2cstop(void)
{
	TWCR = (1<<TWINT) | (1<<TWEN) | (1<<TWSTO);
  f6:	84 e9       	ldi	r24, 0x94	; 148
  f8:	86 bf       	out	0x36, r24	; 54
	while(TWCR & (1<<TWSTO));
  fa:	06 b6       	in	r0, 0x36	; 54
  fc:	04 fc       	sbrc	r0, 4
  fe:	fd cf       	rjmp	.-6      	; 0xfa <i2cstop+0x4>
}
 100:	08 95       	ret

00000102 <ssd1306_command>:
	//if(i == 18) return;
	//}
}	

void ssd1306_command(uint8_t data)
{
 102:	cf 93       	push	r28
 104:	c8 2f       	mov	r28, r24
	i2cstart();
 106:	0e 94 49 00 	call	0x92	; 0x92 <i2cstart>
	i2cwrite(0x00);      // Co = 0, D/C = 0
 10a:	80 e0       	ldi	r24, 0x00	; 0
 10c:	0e 94 6c 00 	call	0xd8	; 0xd8 <i2cwrite>
	i2cwrite(data);
 110:	8c 2f       	mov	r24, r28
 112:	0e 94 6c 00 	call	0xd8	; 0xd8 <i2cwrite>
	i2cstop();
 116:	0e 94 7b 00 	call	0xf6	; 0xf6 <i2cstop>
	//return;
	//
///*Stop bit*/
	//TWCR = (1<<TWINT)|(1<<TWSTO)|(1<<TWEN);
	//while(TWCR & (1<<TWSTO));
}
 11a:	cf 91       	pop	r28
 11c:	08 95       	ret

0000011e <InitI2C>:
}
	
void InitI2C()
{
	//int i = 0;
	TWBR = TWBR_VALUE;
 11e:	88 e4       	ldi	r24, 0x48	; 72
 120:	80 b9       	out	0x00, r24	; 0
	TWSR = 0;
 122:	11 b8       	out	0x01, r1	; 1
	//while(1)
	//{
		//ssd1306_command(init[i]);
		//i++;
	//
	ssd1306_command(SSD1306_DISPLAYOFF);                    // 0xAE
 124:	8e ea       	ldi	r24, 0xAE	; 174
 126:	0e 94 81 00 	call	0x102	; 0x102 <ssd1306_command>
	ssd1306_command(SSD1306_SETDISPLAYCLOCKDIV);            // 0xD5
 12a:	85 ed       	ldi	r24, 0xD5	; 213
 12c:	0e 94 81 00 	call	0x102	; 0x102 <ssd1306_command>
	ssd1306_command(0x80);                                  // the suggested ratio 0x80
 130:	80 e8       	ldi	r24, 0x80	; 128
 132:	0e 94 81 00 	call	0x102	; 0x102 <ssd1306_command>

	ssd1306_command(SSD1306_SETMULTIPLEX);                  // 0xA8
 136:	88 ea       	ldi	r24, 0xA8	; 168
 138:	0e 94 81 00 	call	0x102	; 0x102 <ssd1306_command>
	ssd1306_command(SSD1306_LCDHEIGHT - 1);
 13c:	8f e3       	ldi	r24, 0x3F	; 63
 13e:	0e 94 81 00 	call	0x102	; 0x102 <ssd1306_command>

	ssd1306_command(SSD1306_SETDISPLAYOFFSET);              // 0xD3
 142:	83 ed       	ldi	r24, 0xD3	; 211
 144:	0e 94 81 00 	call	0x102	; 0x102 <ssd1306_command>
	ssd1306_command(0x0);                                   // no offset
 148:	80 e0       	ldi	r24, 0x00	; 0
 14a:	0e 94 81 00 	call	0x102	; 0x102 <ssd1306_command>
	ssd1306_command(SSD1306_SETSTARTLINE | 0x0);            // line #0
 14e:	80 e4       	ldi	r24, 0x40	; 64
 150:	0e 94 81 00 	call	0x102	; 0x102 <ssd1306_command>
	ssd1306_command(SSD1306_CHARGEPUMP);                    // 0x8D
 154:	8d e8       	ldi	r24, 0x8D	; 141
 156:	0e 94 81 00 	call	0x102	; 0x102 <ssd1306_command>
	if (0x2 == SSD1306_EXTERNALVCC)
	{ ssd1306_command(0x10); }
	else
	{ ssd1306_command(0x14); }
 15a:	84 e1       	ldi	r24, 0x14	; 20
 15c:	0e 94 81 00 	call	0x102	; 0x102 <ssd1306_command>
	ssd1306_command(0x20);                    // 0x20  SSD1306_MEMORYMODE
 160:	80 e2       	ldi	r24, 0x20	; 32
 162:	0e 94 81 00 	call	0x102	; 0x102 <ssd1306_command>
	ssd1306_command(0x00);                                  // 0x0 act like ks0108
 166:	80 e0       	ldi	r24, 0x00	; 0
 168:	0e 94 81 00 	call	0x102	; 0x102 <ssd1306_command>
	ssd1306_command(SSD1306_SEGREMAP | 0x1);
 16c:	81 ea       	ldi	r24, 0xA1	; 161
 16e:	0e 94 81 00 	call	0x102	; 0x102 <ssd1306_command>
	ssd1306_command(SSD1306_COMSCANDEC);
 172:	88 ec       	ldi	r24, 0xC8	; 200
 174:	0e 94 81 00 	call	0x102	; 0x102 <ssd1306_command>

	
		ssd1306_command(SSD1306_SETCOMPINS);                    // 0xDA
 178:	8a ed       	ldi	r24, 0xDA	; 218
 17a:	0e 94 81 00 	call	0x102	; 0x102 <ssd1306_command>
		ssd1306_command(0x02);
 17e:	82 e0       	ldi	r24, 0x02	; 2
 180:	0e 94 81 00 	call	0x102	; 0x102 <ssd1306_command>
		ssd1306_command(SSD1306_SETCONTRAST);                   // 0x81
 184:	81 e8       	ldi	r24, 0x81	; 129
 186:	0e 94 81 00 	call	0x102	; 0x102 <ssd1306_command>
		ssd1306_command(0x8F);
 18a:	8f e8       	ldi	r24, 0x8F	; 143
 18c:	0e 94 81 00 	call	0x102	; 0x102 <ssd1306_command>
	
	
	ssd1306_command(SSD1306_SETPRECHARGE);                  // 0xd9
 190:	89 ed       	ldi	r24, 0xD9	; 217
 192:	0e 94 81 00 	call	0x102	; 0x102 <ssd1306_command>
	if (0x2 == SSD1306_EXTERNALVCC)
	{ ssd1306_command(0x22); }
	else
	{ ssd1306_command(0xF1); }
 196:	81 ef       	ldi	r24, 0xF1	; 241
 198:	0e 94 81 00 	call	0x102	; 0x102 <ssd1306_command>
	ssd1306_command(SSD1306_SETVCOMDETECT);                 // 0xDB
 19c:	8b ed       	ldi	r24, 0xDB	; 219
 19e:	0e 94 81 00 	call	0x102	; 0x102 <ssd1306_command>
	ssd1306_command(0x40);
 1a2:	80 e4       	ldi	r24, 0x40	; 64
 1a4:	0e 94 81 00 	call	0x102	; 0x102 <ssd1306_command>
	ssd1306_command(SSD1306_DISPLAYALLON_RESUME);           // 0xA4
 1a8:	84 ea       	ldi	r24, 0xA4	; 164
 1aa:	0e 94 81 00 	call	0x102	; 0x102 <ssd1306_command>
	ssd1306_command(SSD1306_NORMALDISPLAY);                 // 0xA6
 1ae:	86 ea       	ldi	r24, 0xA6	; 166
 1b0:	0e 94 81 00 	call	0x102	; 0x102 <ssd1306_command>

	ssd1306_command(SSD1306_DEACTIVATE_SCROLL);
 1b4:	8e e2       	ldi	r24, 0x2E	; 46
 1b6:	0e 94 81 00 	call	0x102	; 0x102 <ssd1306_command>

	ssd1306_command(SSD1306_DISPLAYON);//--turn on oled panel
 1ba:	8f ea       	ldi	r24, 0xAF	; 175
 1bc:	0e 94 81 00 	call	0x102	; 0x102 <ssd1306_command>
 1c0:	08 95       	ret

000001c2 <ClearOLED>:
///*Stop bit*/
	//TWCR = (1<<TWINT)|(1<<TWSTO)|(1<<TWEN);
	//while(TWCR & (1<<TWSTO));
}
void ClearOLED()
{
 1c2:	ef 92       	push	r14
 1c4:	ff 92       	push	r15
 1c6:	0f 93       	push	r16
 1c8:	1f 93       	push	r17
 1ca:	cf 93       	push	r28
 1cc:	df 93       	push	r29
	i2cstart();
 1ce:	0e 94 49 00 	call	0x92	; 0x92 <i2cstart>
	i2cwrite(0x00);
 1d2:	80 e0       	ldi	r24, 0x00	; 0
 1d4:	0e 94 6c 00 	call	0xd8	; 0xd8 <i2cwrite>
	i2cwrite(SSD1306_COLUMNADDR);
 1d8:	81 e2       	ldi	r24, 0x21	; 33
 1da:	0e 94 6c 00 	call	0xd8	; 0xd8 <i2cwrite>
	i2cwrite(0x00);
 1de:	80 e0       	ldi	r24, 0x00	; 0
 1e0:	0e 94 6c 00 	call	0xd8	; 0xd8 <i2cwrite>
	i2cwrite(0x7F);
 1e4:	8f e7       	ldi	r24, 0x7F	; 127
 1e6:	0e 94 6c 00 	call	0xd8	; 0xd8 <i2cwrite>
	i2cstop();
 1ea:	0e 94 7b 00 	call	0xf6	; 0xf6 <i2cstop>
	
	i2cstart();
 1ee:	0e 94 49 00 	call	0x92	; 0x92 <i2cstart>
	i2cwrite(0x00);
 1f2:	80 e0       	ldi	r24, 0x00	; 0
 1f4:	0e 94 6c 00 	call	0xd8	; 0xd8 <i2cwrite>
	i2cwrite(SSD1306_PAGEADDR);
 1f8:	82 e2       	ldi	r24, 0x22	; 34
 1fa:	0e 94 6c 00 	call	0xd8	; 0xd8 <i2cwrite>
	i2cwrite(0x04);
 1fe:	84 e0       	ldi	r24, 0x04	; 4
 200:	0e 94 6c 00 	call	0xd8	; 0xd8 <i2cwrite>
	i2cwrite(0x07);
 204:	87 e0       	ldi	r24, 0x07	; 7
 206:	0e 94 6c 00 	call	0xd8	; 0xd8 <i2cwrite>
	i2cstop();
 20a:	0e 94 7b 00 	call	0xf6	; 0xf6 <i2cstop>
	i2cstart();
 20e:	0e 94 49 00 	call	0x92	; 0x92 <i2cstart>
	//i2cwrite(0b10000000);
	//i2cwrite(0x20);
	//i2cwrite(0b10000000);
	//i2cwrite(0x00);
	i2cwrite(0x40);
 212:	80 e4       	ldi	r24, 0x40	; 64
 214:	0e 94 6c 00 	call	0xd8	; 0xd8 <i2cwrite>
 218:	04 e0       	ldi	r16, 0x04	; 4
 21a:	10 e0       	ldi	r17, 0x00	; 0
///*Stop bit*/
	//TWCR = (1<<TWINT)|(1<<TWSTO)|(1<<TWEN);
	//while(TWCR & (1<<TWSTO));
}
void ClearOLED()
{
 21c:	68 94       	set
 21e:	ee 24       	eor	r14, r14
 220:	e7 f8       	bld	r14, 7
 222:	f1 2c       	mov	r15, r1
 224:	0b c0       	rjmp	.+22     	; 0x23c <ClearOLED+0x7a>
	i2cwrite(0x40);
	
	for(int kk = 0; kk < 4; kk++)
	{
		for(int k = 0; k < 128; k++)
			i2cwrite(0x00);	//LSB вверху, MSB снизу
 226:	80 e0       	ldi	r24, 0x00	; 0
 228:	0e 94 6c 00 	call	0xd8	; 0xd8 <i2cwrite>
 22c:	21 97       	sbiw	r28, 0x01	; 1
	//i2cwrite(0x00);
	i2cwrite(0x40);
	
	for(int kk = 0; kk < 4; kk++)
	{
		for(int k = 0; k < 128; k++)
 22e:	20 97       	sbiw	r28, 0x00	; 0
 230:	d1 f7       	brne	.-12     	; 0x226 <ClearOLED+0x64>
 232:	01 50       	subi	r16, 0x01	; 1
 234:	11 09       	sbc	r17, r1
	//i2cwrite(0x20);
	//i2cwrite(0b10000000);
	//i2cwrite(0x00);
	i2cwrite(0x40);
	
	for(int kk = 0; kk < 4; kk++)
 236:	01 15       	cp	r16, r1
 238:	11 05       	cpc	r17, r1
 23a:	19 f0       	breq	.+6      	; 0x242 <ClearOLED+0x80>
///*Stop bit*/
	//TWCR = (1<<TWINT)|(1<<TWSTO)|(1<<TWEN);
	//while(TWCR & (1<<TWSTO));
}
void ClearOLED()
{
 23c:	ce 2d       	mov	r28, r14
 23e:	df 2d       	mov	r29, r15
 240:	f2 cf       	rjmp	.-28     	; 0x226 <ClearOLED+0x64>
	for(int kk = 0; kk < 4; kk++)
	{
		for(int k = 0; k < 128; k++)
			i2cwrite(0x00);	//LSB вверху, MSB снизу
	}
	i2cstop();
 242:	0e 94 7b 00 	call	0xf6	; 0xf6 <i2cstop>
}
 246:	df 91       	pop	r29
 248:	cf 91       	pop	r28
 24a:	1f 91       	pop	r17
 24c:	0f 91       	pop	r16
 24e:	ff 90       	pop	r15
 250:	ef 90       	pop	r14
 252:	08 95       	ret

00000254 <SetOLED>:
	}
	
}

void SetOLED(void)
{
 254:	0f 93       	push	r16
 256:	1f 93       	push	r17
 258:	cf 93       	push	r28
 25a:	df 93       	push	r29
	ssd1306_command(SSD1306_DISPLAYOFF);
 25c:	8e ea       	ldi	r24, 0xAE	; 174
 25e:	0e 94 81 00 	call	0x102	; 0x102 <ssd1306_command>
	i2cstart();
 262:	0e 94 49 00 	call	0x92	; 0x92 <i2cstart>
	i2cwrite(0x00);
 266:	80 e0       	ldi	r24, 0x00	; 0
 268:	0e 94 6c 00 	call	0xd8	; 0xd8 <i2cwrite>
	i2cwrite(SSD1306_COLUMNADDR);
 26c:	81 e2       	ldi	r24, 0x21	; 33
 26e:	0e 94 6c 00 	call	0xd8	; 0xd8 <i2cwrite>
	i2cwrite(0x00);
 272:	80 e0       	ldi	r24, 0x00	; 0
 274:	0e 94 6c 00 	call	0xd8	; 0xd8 <i2cwrite>
	i2cwrite(0x1F);
 278:	8f e1       	ldi	r24, 0x1F	; 31
 27a:	0e 94 6c 00 	call	0xd8	; 0xd8 <i2cwrite>
	i2cstop();
 27e:	0e 94 7b 00 	call	0xf6	; 0xf6 <i2cstop>
	
	i2cstart();
 282:	0e 94 49 00 	call	0x92	; 0x92 <i2cstart>
	i2cwrite(0x00);
 286:	80 e0       	ldi	r24, 0x00	; 0
 288:	0e 94 6c 00 	call	0xd8	; 0xd8 <i2cwrite>
	i2cwrite(SSD1306_PAGEADDR);
 28c:	82 e2       	ldi	r24, 0x22	; 34
 28e:	0e 94 6c 00 	call	0xd8	; 0xd8 <i2cwrite>
	i2cwrite(0x04);
 292:	84 e0       	ldi	r24, 0x04	; 4
 294:	0e 94 6c 00 	call	0xd8	; 0xd8 <i2cwrite>
	i2cwrite(0x07);
 298:	87 e0       	ldi	r24, 0x07	; 7
 29a:	0e 94 6c 00 	call	0xd8	; 0xd8 <i2cwrite>
	i2cstop();
 29e:	0e 94 7b 00 	call	0xf6	; 0xf6 <i2cstop>
	#else
		//round up by default
		__ticks_dc = (uint32_t)(ceil(fabs(__tmp)));
	#endif

	__builtin_avr_delay_cycles(__ticks_dc);
 2a2:	2f ef       	ldi	r18, 0xFF	; 255
 2a4:	80 e7       	ldi	r24, 0x70	; 112
 2a6:	92 e0       	ldi	r25, 0x02	; 2
 2a8:	21 50       	subi	r18, 0x01	; 1
 2aa:	80 40       	sbci	r24, 0x00	; 0
 2ac:	90 40       	sbci	r25, 0x00	; 0
 2ae:	e1 f7       	brne	.-8      	; 0x2a8 <SetOLED+0x54>
 2b0:	00 c0       	rjmp	.+0      	; 0x2b2 <SetOLED+0x5e>
 2b2:	00 00       	nop
//
	//ssd1306_command(SSD1306_PAGEADDR);
	//ssd1306_command(0x04);
	//ssd1306_command(0x07);
	_delay_ms(100);
	i2cstart();
 2b4:	0e 94 49 00 	call	0x92	; 0x92 <i2cstart>
	i2cwrite(0x40);
 2b8:	80 e4       	ldi	r24, 0x40	; 64
 2ba:	0e 94 6c 00 	call	0xd8	; 0xd8 <i2cwrite>
 2be:	c0 e6       	ldi	r28, 0x60	; 96
 2c0:	d0 e0       	ldi	r29, 0x00	; 0
 2c2:	00 ee       	ldi	r16, 0xE0	; 224
 2c4:	10 e0       	ldi	r17, 0x00	; 0
	for(int kk = 0; kk < 128; kk++)
	{
		i2cwrite(serp[kk]);	//LSB вверху, MSB снизу
 2c6:	89 91       	ld	r24, Y+
 2c8:	0e 94 6c 00 	call	0xd8	; 0xd8 <i2cwrite>
	//ssd1306_command(0x04);
	//ssd1306_command(0x07);
	_delay_ms(100);
	i2cstart();
	i2cwrite(0x40);
	for(int kk = 0; kk < 128; kk++)
 2cc:	c0 17       	cp	r28, r16
 2ce:	d1 07       	cpc	r29, r17
 2d0:	d1 f7       	brne	.-12     	; 0x2c6 <SetOLED+0x72>
	{
		i2cwrite(serp[kk]);	//LSB вверху, MSB снизу
	}
	i2cstop();
 2d2:	0e 94 7b 00 	call	0xf6	; 0xf6 <i2cstop>
	ssd1306_command(SSD1306_DISPLAYON);
 2d6:	8f ea       	ldi	r24, 0xAF	; 175
 2d8:	0e 94 81 00 	call	0x102	; 0x102 <ssd1306_command>
	//{
		//i2cwrite(Z1[kk]);	//LSB вверху, MSB снизу
	//}
	//
	//i2cstop();
	ssd1306_command(SSD1306_DISPLAYOFF);
 2dc:	8e ea       	ldi	r24, 0xAE	; 174
 2de:	0e 94 81 00 	call	0x102	; 0x102 <ssd1306_command>
	i2cstart();
 2e2:	0e 94 49 00 	call	0x92	; 0x92 <i2cstart>
	i2cwrite(0x00);
 2e6:	80 e0       	ldi	r24, 0x00	; 0
 2e8:	0e 94 6c 00 	call	0xd8	; 0xd8 <i2cwrite>
	i2cwrite(SSD1306_COLUMNADDR);
 2ec:	81 e2       	ldi	r24, 0x21	; 33
 2ee:	0e 94 6c 00 	call	0xd8	; 0xd8 <i2cwrite>
	i2cwrite(0x2A);
 2f2:	8a e2       	ldi	r24, 0x2A	; 42
 2f4:	0e 94 6c 00 	call	0xd8	; 0xd8 <i2cwrite>
	i2cwrite(0x66);
 2f8:	86 e6       	ldi	r24, 0x66	; 102
 2fa:	0e 94 6c 00 	call	0xd8	; 0xd8 <i2cwrite>
	i2cstop();
 2fe:	0e 94 7b 00 	call	0xf6	; 0xf6 <i2cstop>
	//
	//ssd1306_command(SSD1306_PAGEADDR);
	//ssd1306_command(0x04);
	//ssd1306_command(0x07);
	
	i2cstart();
 302:	0e 94 49 00 	call	0x92	; 0x92 <i2cstart>
	i2cwrite(0x40);
 306:	80 e4       	ldi	r24, 0x40	; 64
 308:	0e 94 6c 00 	call	0xd8	; 0xd8 <i2cwrite>
 30c:	cf e1       	ldi	r28, 0x1F	; 31
 30e:	d2 e0       	ldi	r29, 0x02	; 2
 310:	0e e1       	ldi	r16, 0x1E	; 30
 312:	13 e0       	ldi	r17, 0x03	; 3
	for(int kk = 0; kk < 255; kk++)
	{
		i2cwrite(BGUIRlogo[kk]);	//LSB вверху, MSB снизу
 314:	89 91       	ld	r24, Y+
 316:	0e 94 6c 00 	call	0xd8	; 0xd8 <i2cwrite>
	//ssd1306_command(0x04);
	//ssd1306_command(0x07);
	
	i2cstart();
	i2cwrite(0x40);
	for(int kk = 0; kk < 255; kk++)
 31a:	c0 17       	cp	r28, r16
 31c:	d1 07       	cpc	r29, r17
 31e:	d1 f7       	brne	.-12     	; 0x314 <SetOLED+0xc0>
	{
		i2cwrite(BGUIRlogo[kk]);	//LSB вверху, MSB снизу
	}
	i2cstop();
 320:	0e 94 7b 00 	call	0xf6	; 0xf6 <i2cstop>
	ssd1306_command(SSD1306_DISPLAYON);
 324:	8f ea       	ldi	r24, 0xAF	; 175
 326:	0e 94 81 00 	call	0x102	; 0x102 <ssd1306_command>
 32a:	2f ef       	ldi	r18, 0xFF	; 255
 32c:	89 e6       	ldi	r24, 0x69	; 105
 32e:	98 e1       	ldi	r25, 0x18	; 24
 330:	21 50       	subi	r18, 0x01	; 1
 332:	80 40       	sbci	r24, 0x00	; 0
 334:	90 40       	sbci	r25, 0x00	; 0
 336:	e1 f7       	brne	.-8      	; 0x330 <SetOLED+0xdc>
 338:	00 c0       	rjmp	.+0      	; 0x33a <SetOLED+0xe6>
 33a:	00 00       	nop
	
	_delay_ms(1000);
	
	ClearOLED();
 33c:	0e 94 e1 00 	call	0x1c2	; 0x1c2 <ClearOLED>
 340:	2f ef       	ldi	r18, 0xFF	; 255
 342:	80 e7       	ldi	r24, 0x70	; 112
 344:	92 e0       	ldi	r25, 0x02	; 2
 346:	21 50       	subi	r18, 0x01	; 1
 348:	80 40       	sbci	r24, 0x00	; 0
 34a:	90 40       	sbci	r25, 0x00	; 0
 34c:	e1 f7       	brne	.-8      	; 0x346 <SetOLED+0xf2>
 34e:	00 c0       	rjmp	.+0      	; 0x350 <SetOLED+0xfc>
 350:	00 00       	nop
	_delay_ms(100);
	
	ssd1306_command(SSD1306_DISPLAYOFF);
 352:	8e ea       	ldi	r24, 0xAE	; 174
 354:	0e 94 81 00 	call	0x102	; 0x102 <ssd1306_command>
	i2cstart();
 358:	0e 94 49 00 	call	0x92	; 0x92 <i2cstart>
	i2cwrite(0x00);
 35c:	80 e0       	ldi	r24, 0x00	; 0
 35e:	0e 94 6c 00 	call	0xd8	; 0xd8 <i2cwrite>
	i2cwrite(SSD1306_COLUMNADDR);
 362:	81 e2       	ldi	r24, 0x21	; 33
 364:	0e 94 6c 00 	call	0xd8	; 0xd8 <i2cwrite>
	i2cwrite(0x00);
 368:	80 e0       	ldi	r24, 0x00	; 0
 36a:	0e 94 6c 00 	call	0xd8	; 0xd8 <i2cwrite>
	i2cwrite(0x55);
 36e:	85 e5       	ldi	r24, 0x55	; 85
 370:	0e 94 6c 00 	call	0xd8	; 0xd8 <i2cwrite>
	i2cstop();
 374:	0e 94 7b 00 	call	0xf6	; 0xf6 <i2cstop>
	
	i2cstart();
 378:	0e 94 49 00 	call	0x92	; 0x92 <i2cstart>
	i2cwrite(0x00);
 37c:	80 e0       	ldi	r24, 0x00	; 0
 37e:	0e 94 6c 00 	call	0xd8	; 0xd8 <i2cwrite>
	i2cwrite(SSD1306_PAGEADDR);
 382:	82 e2       	ldi	r24, 0x22	; 34
 384:	0e 94 6c 00 	call	0xd8	; 0xd8 <i2cwrite>
	i2cwrite(0x04);
 388:	84 e0       	ldi	r24, 0x04	; 4
 38a:	0e 94 6c 00 	call	0xd8	; 0xd8 <i2cwrite>
	i2cwrite(0x07);
 38e:	87 e0       	ldi	r24, 0x07	; 7
 390:	0e 94 6c 00 	call	0xd8	; 0xd8 <i2cwrite>
	i2cstop();
 394:	0e 94 7b 00 	call	0xf6	; 0xf6 <i2cstop>
 398:	2f ef       	ldi	r18, 0xFF	; 255
 39a:	80 e7       	ldi	r24, 0x70	; 112
 39c:	92 e0       	ldi	r25, 0x02	; 2
 39e:	21 50       	subi	r18, 0x01	; 1
 3a0:	80 40       	sbci	r24, 0x00	; 0
 3a2:	90 40       	sbci	r25, 0x00	; 0
 3a4:	e1 f7       	brne	.-8      	; 0x39e <SetOLED+0x14a>
 3a6:	00 c0       	rjmp	.+0      	; 0x3a8 <SetOLED+0x154>
 3a8:	00 00       	nop
	//
	//ssd1306_command(SSD1306_PAGEADDR);
	//ssd1306_command(0x04);
	//ssd1306_command(0x07);
	_delay_ms(100);
	i2cstart();
 3aa:	0e 94 49 00 	call	0x92	; 0x92 <i2cstart>
	i2cwrite(0x40);
 3ae:	80 e4       	ldi	r24, 0x40	; 64
 3b0:	0e 94 6c 00 	call	0xd8	; 0xd8 <i2cwrite>
 3b4:	c0 ee       	ldi	r28, 0xE0	; 224
 3b6:	d0 e0       	ldi	r29, 0x00	; 0
 3b8:	0f e1       	ldi	r16, 0x1F	; 31
 3ba:	12 e0       	ldi	r17, 0x02	; 2
	for(long int kk = 0; kk < 319; kk++)
	{
		i2cwrite(AVRlogo[kk]);	//LSB вверху, MSB снизу
 3bc:	89 91       	ld	r24, Y+
 3be:	0e 94 6c 00 	call	0xd8	; 0xd8 <i2cwrite>
	//ssd1306_command(0x04);
	//ssd1306_command(0x07);
	_delay_ms(100);
	i2cstart();
	i2cwrite(0x40);
	for(long int kk = 0; kk < 319; kk++)
 3c2:	c0 17       	cp	r28, r16
 3c4:	d1 07       	cpc	r29, r17
 3c6:	d1 f7       	brne	.-12     	; 0x3bc <SetOLED+0x168>
	{
		i2cwrite(AVRlogo[kk]);	//LSB вверху, MSB снизу
	}
	i2cstop();
 3c8:	0e 94 7b 00 	call	0xf6	; 0xf6 <i2cstop>
	ssd1306_command(SSD1306_DISPLAYON);
 3cc:	8f ea       	ldi	r24, 0xAF	; 175
 3ce:	0e 94 81 00 	call	0x102	; 0x102 <ssd1306_command>
}
 3d2:	df 91       	pop	r29
 3d4:	cf 91       	pop	r28
 3d6:	1f 91       	pop	r17
 3d8:	0f 91       	pop	r16
 3da:	08 95       	ret

000003dc <main>:

int main(void)
{
	DDRB |= ((1<<PORTB0)|(1<<PORTB3)|(1<<PORTB4)|(1<<PORTB5)|(1<<PORTB7)); //ножки SPI на выход
 3dc:	87 b3       	in	r24, 0x17	; 23
 3de:	89 6b       	ori	r24, 0xB9	; 185
 3e0:	87 bb       	out	0x17, r24	; 23
	
	PORTB &= ~((1<<PORTB0)|(1<<PORTB3)|(1<<PORTB4)|(1<<PORTB5)|(1<<PORTB7)); //низкий уровень
 3e2:	88 b3       	in	r24, 0x18	; 24
 3e4:	86 74       	andi	r24, 0x46	; 70
 3e6:	88 bb       	out	0x18, r24	; 24
	//WriteNum(NINE, EITHT, SEVEN);
	//_delay_ms(100);
	//WriteNum(Z, Y, X);
	//
	//
	PORTB &= ~(1<<PORTB3);	
 3e8:	c3 98       	cbi	0x18, 3	; 24
	InitI2C();
 3ea:	0e 94 8f 00 	call	0x11e	; 0x11e <InitI2C>
	PORTB |= ((1<<PORTB4)|(1<<PORTB5));
 3ee:	88 b3       	in	r24, 0x18	; 24
 3f0:	80 63       	ori	r24, 0x30	; 48
 3f2:	88 bb       	out	0x18, r24	; 24
 3f4:	8f e1       	ldi	r24, 0x1F	; 31
 3f6:	9e e4       	ldi	r25, 0x4E	; 78
 3f8:	01 97       	sbiw	r24, 0x01	; 1
 3fa:	f1 f7       	brne	.-4      	; 0x3f8 <main+0x1c>
 3fc:	00 c0       	rjmp	.+0      	; 0x3fe <main+0x22>
 3fe:	00 00       	nop
	_delay_ms(10);
	InitI2C();
 400:	0e 94 8f 00 	call	0x11e	; 0x11e <InitI2C>
 404:	8f e1       	ldi	r24, 0x1F	; 31
 406:	9e e4       	ldi	r25, 0x4E	; 78
 408:	01 97       	sbiw	r24, 0x01	; 1
 40a:	f1 f7       	brne	.-4      	; 0x408 <main+0x2c>
 40c:	00 c0       	rjmp	.+0      	; 0x40e <main+0x32>
 40e:	00 00       	nop
	_delay_ms(10);
	PORTB &= ~((1<<PORTB4)|(1<<PORTB5));
 410:	88 b3       	in	r24, 0x18	; 24
 412:	8f 7c       	andi	r24, 0xCF	; 207
 414:	88 bb       	out	0x18, r24	; 24
 416:	8f e1       	ldi	r24, 0x1F	; 31
 418:	9e e4       	ldi	r25, 0x4E	; 78
 41a:	01 97       	sbiw	r24, 0x01	; 1
 41c:	f1 f7       	brne	.-4      	; 0x41a <main+0x3e>
 41e:	00 c0       	rjmp	.+0      	; 0x420 <main+0x44>
 420:	00 00       	nop
	_delay_ms(10);
	ClearOLED();
 422:	0e 94 e1 00 	call	0x1c2	; 0x1c2 <ClearOLED>
	PORTB |= ((1<<PORTB4)|(1<<PORTB5));
 426:	88 b3       	in	r24, 0x18	; 24
 428:	80 63       	ori	r24, 0x30	; 48
 42a:	88 bb       	out	0x18, r24	; 24
 42c:	8f e1       	ldi	r24, 0x1F	; 31
 42e:	9e e4       	ldi	r25, 0x4E	; 78
 430:	01 97       	sbiw	r24, 0x01	; 1
 432:	f1 f7       	brne	.-4      	; 0x430 <main+0x54>
 434:	00 c0       	rjmp	.+0      	; 0x436 <main+0x5a>
 436:	00 00       	nop
	_delay_ms(10);
	ClearOLED();
 438:	0e 94 e1 00 	call	0x1c2	; 0x1c2 <ClearOLED>
	PORTB &= ~((1<<PORTB4)|(1<<PORTB5));
 43c:	88 b3       	in	r24, 0x18	; 24
 43e:	8f 7c       	andi	r24, 0xCF	; 207
 440:	88 bb       	out	0x18, r24	; 24
 442:	8f e1       	ldi	r24, 0x1F	; 31
 444:	9e e4       	ldi	r25, 0x4E	; 78
 446:	01 97       	sbiw	r24, 0x01	; 1
 448:	f1 f7       	brne	.-4      	; 0x446 <main+0x6a>
 44a:	00 c0       	rjmp	.+0      	; 0x44c <main+0x70>
 44c:	00 00       	nop
	_delay_ms(10);
	SetOLED();
 44e:	0e 94 2a 01 	call	0x254	; 0x254 <SetOLED>
	PORTB |= ((1<<PORTB4)|(1<<PORTB5));
 452:	88 b3       	in	r24, 0x18	; 24
 454:	80 63       	ori	r24, 0x30	; 48
 456:	88 bb       	out	0x18, r24	; 24
 458:	8f e1       	ldi	r24, 0x1F	; 31
 45a:	9e e4       	ldi	r25, 0x4E	; 78
 45c:	01 97       	sbiw	r24, 0x01	; 1
 45e:	f1 f7       	brne	.-4      	; 0x45c <main+0x80>
 460:	00 c0       	rjmp	.+0      	; 0x462 <__stack+0x3>
 462:	00 00       	nop
	_delay_ms(10);
	SetOLED();
 464:	0e 94 2a 01 	call	0x254	; 0x254 <SetOLED>
 468:	9f ef       	ldi	r25, 0xFF	; 255
 46a:	29 e6       	ldi	r18, 0x69	; 105
 46c:	88 e1       	ldi	r24, 0x18	; 24
 46e:	91 50       	subi	r25, 0x01	; 1
 470:	20 40       	sbci	r18, 0x00	; 0
 472:	80 40       	sbci	r24, 0x00	; 0
 474:	e1 f7       	brne	.-8      	; 0x46e <__stack+0xf>
 476:	00 c0       	rjmp	.+0      	; 0x478 <__stack+0x19>
 478:	00 00       	nop
	
	_delay_ms(1000);
	PORTB |= (1<<PORTB3);
 47a:	c3 9a       	sbi	0x18, 3	; 24
 47c:	ff cf       	rjmp	.-2      	; 0x47c <__stack+0x1d>

0000047e <_exit>:
 47e:	f8 94       	cli

00000480 <__stop_program>:
 480:	ff cf       	rjmp	.-2      	; 0x480 <__stop_program>
